target datalayout = "e-m:e-p270:32:32-p271:32:32-p272:64:64-i64:64-i128:128-f80:128-n8:16:32:64-S128"
target triple = "x86_64-pc-linux-gnu"

%struct.AVFilterContext = type { ptr, ptr, ptr, ptr, ptr, i32, ptr, ptr, i32, ptr, ptr, i32, i32, ptr, ptr, ptr, ptr, i32, ptr, i32, i32 }
%struct.AudioRNNContext = type { ptr, ptr, float, i32, ptr, [960 x float], [24 x [24 x float]], [2 x ptr], ptr, [8 x i8] }

; Function Attrs: cold nounwind optsize uwtable
define internal i32 @init(ptr noundef %0) #0 {
  %2 = alloca i32, align 4
  %3 = alloca ptr, align 8
  %4 = alloca ptr, align 8
  %5 = alloca i32, align 4
  %6 = alloca i32, align 4
  %7 = alloca i32, align 4
  %8 = alloca i32, align 4
  %9 = alloca i32, align 4
  store ptr %0, ptr %3, align 8, !tbaa !4
  call void @llvm.lifetime.start.p0(i64 8, ptr %4) #11
  %10 = load ptr, ptr %3, align 8, !tbaa !4
  %11 = getelementptr inbounds nuw %struct.AVFilterContext, ptr %10, i32 0, i32 9
  %12 = load ptr, ptr %11, align 8, !tbaa !9
  store ptr %12, ptr %4, align 8, !tbaa !22
  call void @llvm.lifetime.start.p0(i64 4, ptr %5) #11
  %13 = call ptr @avpriv_float_dsp_alloc(i32 noundef 0)
  %14 = load ptr, ptr %4, align 8, !tbaa !22
  %15 = getelementptr inbounds nuw %struct.AudioRNNContext, ptr %14, i32 0, i32 8
  store ptr %13, ptr %15, align 16, !tbaa !24
  %16 = load ptr, ptr %4, align 8, !tbaa !22
  %17 = getelementptr inbounds nuw %struct.AudioRNNContext, ptr %16, i32 0, i32 8
  %18 = load ptr, ptr %17, align 16, !tbaa !24
  %19 = icmp ne ptr %18, null
  br i1 %19, label %21, label %20

20:                                               ; preds = %1
  store i32 -12, ptr %2, align 4
  store i32 1, ptr %6, align 4
  br label %126

21:                                               ; preds = %1
  %22 = load ptr, ptr %3, align 8, !tbaa !4
  %23 = load ptr, ptr %4, align 8, !tbaa !22
  %24 = getelementptr inbounds nuw %struct.AudioRNNContext, ptr %23, i32 0, i32 7
  %25 = getelementptr inbounds [2 x ptr], ptr %24, i64 0, i64 0
  %26 = call i32 @open_model(ptr noundef %22, ptr noundef %25)
  store i32 %26, ptr %5, align 4, !tbaa !29
  %27 = load i32, ptr %5, align 4, !tbaa !29
  %28 = icmp slt i32 %27, 0
  br i1 %28, label %29, label %31

29:                                               ; preds = %21
  %30 = load i32, ptr %5, align 4, !tbaa !29
  store i32 %30, ptr %2, align 4
  store i32 1, ptr %6, align 4
  br label %126

31:                                               ; preds = %21
  call void @llvm.lifetime.start.p0(i64 4, ptr %7) #11
  store i32 0, ptr %7, align 4, !tbaa !29
  br label %32

32:                                               ; preds = %70, %31
  %33 = load i32, ptr %7, align 4, !tbaa !29
  %34 = icmp slt i32 %33, 480
  br i1 %34, label %36, label %35

35:                                               ; preds = %32
  store i32 2, ptr %6, align 4
  call void @llvm.lifetime.end.p0(i64 4, ptr %7) #11
  br label %73

36:                                               ; preds = %32
  %37 = load i32, ptr %7, align 4, !tbaa !29
  %38 = sitofp i32 %37 to double
  %39 = fadd nsz double %38, 5.000000e-01
  %40 = fmul nsz double 0x3FF921FB54442D18, %39
  %41 = fdiv nsz double %40, 4.800000e+02
  %42 = call nsz double @llvm.sin.f64(double %41)
  %43 = fmul nsz double 0x3FF921FB54442D18, %42
  %44 = load i32, ptr %7, align 4, !tbaa !29
  %45 = sitofp i32 %44 to double
  %46 = fadd nsz double %45, 5.000000e-01
  %47 = fmul nsz double 0x3FF921FB54442D18, %46
  %48 = fdiv nsz double %47, 4.800000e+02
  %49 = call nsz double @llvm.sin.f64(double %48)
  %50 = fmul nsz double %43, %49
  %51 = call nsz double @llvm.sin.f64(double %50)
  %52 = fptrunc nsz double %51 to float
  %53 = load ptr, ptr %4, align 8, !tbaa !22
  %54 = getelementptr inbounds nuw %struct.AudioRNNContext, ptr %53, i32 0, i32 5
  %55 = load i32, ptr %7, align 4, !tbaa !29
  %56 = sext i32 %55 to i64
  %57 = getelementptr inbounds [960 x float], ptr %54, i64 0, i64 %56
  store float %52, ptr %57, align 4, !tbaa !30
  %58 = load ptr, ptr %4, align 8, !tbaa !22
  %59 = getelementptr inbounds nuw %struct.AudioRNNContext, ptr %58, i32 0, i32 5
  %60 = load i32, ptr %7, align 4, !tbaa !29
  %61 = sext i32 %60 to i64
  %62 = getelementptr inbounds [960 x float], ptr %59, i64 0, i64 %61
  %63 = load float, ptr %62, align 4, !tbaa !30
  %64 = load ptr, ptr %4, align 8, !tbaa !22
  %65 = getelementptr inbounds nuw %struct.AudioRNNContext, ptr %64, i32 0, i32 5
  %66 = load i32, ptr %7, align 4, !tbaa !29
  %67 = sub nsw i32 959, %66
  %68 = sext i32 %67 to i64
  %69 = getelementptr inbounds [960 x float], ptr %65, i64 0, i64 %68
  store float %63, ptr %69, align 4, !tbaa !30
  br label %70

70:                                               ; preds = %36
  %71 = load i32, ptr %7, align 4, !tbaa !29
  %72 = add nsw i32 %71, 1
  store i32 %72, ptr %7, align 4, !tbaa !29
  br label %32, !llvm.loop !31

73:                                               ; preds = %35
  call void @llvm.lifetime.start.p0(i64 4, ptr %8) #11
  store i32 0, ptr %8, align 4, !tbaa !29
  br label %74

74:                                               ; preds = %122, %73
  %75 = load i32, ptr %8, align 4, !tbaa !29
  %76 = icmp slt i32 %75, 22
  br i1 %76, label %78, label %77

77:                                               ; preds = %74
  store i32 5, ptr %6, align 4
  call void @llvm.lifetime.end.p0(i64 4, ptr %8) #11
  br label %125

78:                                               ; preds = %74
  call void @llvm.lifetime.start.p0(i64 4, ptr %9) #11
  store i32 0, ptr %9, align 4, !tbaa !29
  br label %79

79:                                               ; preds = %118, %78
  %80 = load i32, ptr %9, align 4, !tbaa !29
  %81 = icmp slt i32 %80, 22
  br i1 %81, label %83, label %82

82:                                               ; preds = %79
  store i32 8, ptr %6, align 4
  call void @llvm.lifetime.end.p0(i64 4, ptr %9) #11
  br label %121

83:                                               ; preds = %79
  %84 = load i32, ptr %8, align 4, !tbaa !29
  %85 = sitofp i32 %84 to float
  %86 = fadd nsz float %85, 5.000000e-01
  %87 = load i32, ptr %9, align 4, !tbaa !29
  %88 = sitofp i32 %87 to float
  %89 = fmul nsz float %86, %88
  %90 = fpext nsz float %89 to double
  %91 = fmul nsz double %90, 0x400921FB54442D18
  %92 = fdiv nsz double %91, 2.200000e+01
  %93 = fptrunc nsz double %92 to float
  %94 = call nsz float @llvm.cos.f32(float %93)
  %95 = load ptr, ptr %4, align 8, !tbaa !22
  %96 = getelementptr inbounds nuw %struct.AudioRNNContext, ptr %95, i32 0, i32 6
  %97 = load i32, ptr %9, align 4, !tbaa !29
  %98 = sext i32 %97 to i64
  %99 = getelementptr inbounds [24 x [24 x float]], ptr %96, i64 0, i64 %98
  %100 = load i32, ptr %8, align 4, !tbaa !29
  %101 = sext i32 %100 to i64
  %102 = getelementptr inbounds [24 x float], ptr %99, i64 0, i64 %101
  store float %94, ptr %102, align 4, !tbaa !30
  %103 = load i32, ptr %9, align 4, !tbaa !29
  %104 = icmp eq i32 %103, 0
  br i1 %104, label %105, label %117

105:                                              ; preds = %83
  %106 = call nsz float @llvm.sqrt.f32(float 5.000000e-01)
  %107 = load ptr, ptr %4, align 8, !tbaa !22
  %108 = getelementptr inbounds nuw %struct.AudioRNNContext, ptr %107, i32 0, i32 6
  %109 = load i32, ptr %9, align 4, !tbaa !29
  %110 = sext i32 %109 to i64
  %111 = getelementptr inbounds [24 x [24 x float]], ptr %108, i64 0, i64 %110
  %112 = load i32, ptr %8, align 4, !tbaa !29
  %113 = sext i32 %112 to i64
  %114 = getelementptr inbounds [24 x float], ptr %111, i64 0, i64 %113
  %115 = load float, ptr %114, align 4, !tbaa !30
  %116 = fmul nsz float %115, %106
  store float %116, ptr %114, align 4, !tbaa !30
  br label %117

117:                                              ; preds = %105, %83
  br label %118

118:                                              ; preds = %117
  %119 = load i32, ptr %9, align 4, !tbaa !29
  %120 = add nsw i32 %119, 1
  store i32 %120, ptr %9, align 4, !tbaa !29
  br label %79, !llvm.loop !33

121:                                              ; preds = %82
  br label %122

122:                                              ; preds = %121
  %123 = load i32, ptr %8, align 4, !tbaa !29
  %124 = add nsw i32 %123, 1
  store i32 %124, ptr %8, align 4, !tbaa !29
  br label %74, !llvm.loop !34

125:                                              ; preds = %77
  store i32 0, ptr %2, align 4
  store i32 1, ptr %6, align 4
  br label %126

126:                                              ; preds = %125, %29, %20
  call void @llvm.lifetime.end.p0(i64 4, ptr %5) #11
  call void @llvm.lifetime.end.p0(i64 8, ptr %4) #11
  %127 = load i32, ptr %2, align 4
  ret i32 %127
}