; Function Attrs: cold nounwind optsize uwtable
define internal range(i32 -1094995529, 1) i32 @init(ptr noundef %0) #0 {
  %2 = getelementptr inbounds nuw i8, ptr %0, i64 72
  %3 = load ptr, ptr %2, align 8, !tbaa !4
  %4 = tail call ptr @avpriv_float_dsp_alloc(i32 noundef 0) #11
  %5 = getelementptr inbounds nuw i8, ptr %3, i64 6192
  store ptr %4, ptr %5, align 16, !tbaa !20
  %.not = icmp eq ptr %4, null
  br i1 %.not, label %.loopexit, label %6

6:                                                ; preds = %1
  %7 = getelementptr inbounds nuw i8, ptr %3, i64 6176
  %8 = tail call fastcc i32 @open_model(ptr noundef nonnull %0, ptr noundef nonnull %7)
  %9 = icmp slt i32 %8, 0
  br i1 %9, label %.loopexit, label %.preheader35

.preheader35:                                     ; preds = %6
  %10 = getelementptr inbounds nuw i8, ptr %3, i64 32
  br label %12

.preheader34:                                     ; preds = %12
  %11 = getelementptr inbounds nuw i8, ptr %3, i64 3872
  br label %.preheader

12:                                               ; preds = %.preheader35, %12
  %indvars.iv = phi i64 [ 0, %.preheader35 ], [ %indvars.iv.next, %12 ]
  %13 = trunc nuw nsw i64 %indvars.iv to i32
  %14 = uitofp nneg i32 %13 to double
  %15 = fadd nsz double %14, 5.000000e-01
  %16 = fmul nsz double %15, 0x3FF921FB54442D18
  %17 = fdiv nsz double %16, 4.800000e+02
  %18 = tail call nsz double @llvm.sin.f64(double %17)
  %19 = fmul nsz double %18, 0x3FF921FB54442D18
  %20 = fmul nsz double %18, %19
  %21 = tail call nsz double @llvm.sin.f64(double %20)
  %22 = fptrunc nsz double %21 to float
  %23 = getelementptr inbounds nuw [960 x float], ptr %10, i64 0, i64 %indvars.iv
  store float %22, ptr %23, align 4, !tbaa !25
  %24 = sub nuw nsw i64 959, %indvars.iv
  %25 = getelementptr inbounds nuw [960 x float], ptr %10, i64 0, i64 %24
  store float %22, ptr %25, align 4, !tbaa !25
  %indvars.iv.next = add nuw nsw i64 %indvars.iv, 1
  %exitcond.not = icmp eq i64 %indvars.iv.next, 480
  br i1 %exitcond.not, label %.preheader34, label %12, !llvm.loop !26

.preheader:                                       ; preds = %.preheader34, %29
  %indvars.iv44 = phi i64 [ 0, %.preheader34 ], [ %indvars.iv.next45, %29 ]
  %26 = trunc nuw nsw i64 %indvars.iv44 to i32
  %27 = uitofp nneg i32 %26 to float
  %28 = fadd nsz float %27, 5.000000e-01
  br label %30

29:                                               ; preds = %30
  %indvars.iv.next45 = add nuw nsw i64 %indvars.iv44, 1
  %exitcond47.not = icmp eq i64 %indvars.iv.next45, 22
  br i1 %exitcond47.not, label %.loopexit, label %.preheader, !llvm.loop !28

30:                                               ; preds = %.preheader, %30
  %indvars.iv40 = phi i64 [ 0, %.preheader ], [ %indvars.iv.next41, %30 ]
  %31 = trunc nuw nsw i64 %indvars.iv40 to i32
  %32 = uitofp nneg i32 %31 to float
  %33 = fmul nsz float %28, %32
  %34 = fpext nsz float %33 to double
  %35 = fmul nsz double %34, 0x400921FB54442D18
  %36 = fdiv nsz double %35, 2.200000e+01
  %37 = fptrunc nsz double %36 to float
  %38 = tail call nsz float @llvm.cos.f32(float %37)
  %39 = getelementptr inbounds nuw [24 x [24 x float]], ptr %11, i64 0, i64 %indvars.iv40, i64 %indvars.iv44
  %40 = icmp eq i64 %indvars.iv40, 0
  %41 = fmul nsz float %38, 0x3FE6A09E60000000
  %storemerge = select i1 %40, float %41, float %38
  store float %storemerge, ptr %39, align 4, !tbaa !25
  %indvars.iv.next41 = add nuw nsw i64 %indvars.iv40, 1
  %exitcond43.not = icmp eq i64 %indvars.iv.next41, 22
  br i1 %exitcond43.not, label %29, label %30, !llvm.loop !29

.loopexit:                                        ; preds = %29, %6, %1
  %.032 = phi i32 [ -12, %1 ], [ %8, %6 ], [ 0, %29 ]
  ret i32 %.032
}